target datalayout = "e-m:e-p270:32:32-p271:32:32-p272:64:64-i64:64-i128:128-f80:128-n8:16:32:64-S128"
target triple = "x86_64-pc-linux-gnu"

%"struct.duckdb_zstd::ZSTD_frameParameters" = type { i32, i32, i32 }

@__const._ZN11duckdb_zstd24ZSTD_compress_usingCDictEPNS_11ZSTD_CCtx_sEPvmPKvmPKNS_12ZSTD_CDict_sE.fParams = private unnamed_addr constant %"struct.duckdb_zstd::ZSTD_frameParameters" { i32 1, i32 0, i32 0 }, align 4

; Function Attrs: mustprogress nounwind uwtable
define internal noundef i32 @_ZN11duckdb_zstdL11ERR_isErrorEm(i64 noundef %0) #0 {
  %2 = alloca i64, align 8
  store i64 %0, ptr %2, align 8, !tbaa !3
  %3 = load i64, ptr %2, align 8, !tbaa !3
  %4 = icmp ugt i64 %3, -120
  %5 = zext i1 %4 to i32
  ret i32 %5
}

; Function Attrs: mustprogress uwtable
define internal noundef i64 @_ZN11duckdb_zstdL33ZSTD_compress_usingCDict_internalEPNS_11ZSTD_CCtx_sEPvmPKvmPKNS_12ZSTD_CDict_sENS_20ZSTD_frameParametersE(ptr noundef %0, ptr noundef %1, i64 noundef %2, ptr noundef %3, i64 noundef %4, ptr noundef %5, ptr noundef byval(%"struct.duckdb_zstd::ZSTD_frameParameters") align 8 %6) #2 {
  %8 = alloca i64, align 8
  %9 = alloca ptr, align 8
  %10 = alloca ptr, align 8
  %11 = alloca i64, align 8
  %12 = alloca ptr, align 8
  %13 = alloca i64, align 8
  %14 = alloca ptr, align 8
  %15 = alloca i64, align 8
  %16 = alloca %"struct.duckdb_zstd::ZSTD_frameParameters", align 4
  %17 = alloca { i64, i32 }, align 4
  %18 = alloca i32, align 4
  store ptr %0, ptr %9, align 8, !tbaa !13
  store ptr %1, ptr %10, align 8, !tbaa !8
  store i64 %2, ptr %11, align 8, !tbaa !3
  store ptr %3, ptr %12, align 8, !tbaa !8
  store i64 %4, ptr %13, align 8, !tbaa !3
  store ptr %5, ptr %14, align 8, !tbaa !92
  br label %19

19:                                               ; preds = %7
  call void @llvm.lifetime.start.p0(i64 8, ptr %15) #16
  %20 = load ptr, ptr %9, align 8, !tbaa !13
  %21 = load ptr, ptr %14, align 8, !tbaa !92
  call void @llvm.memcpy.p0.p0.i64(ptr align 4 %16, ptr align 8 %6, i64 12, i1 false), !tbaa.struct !109
  %22 = load i64, ptr %13, align 8, !tbaa !3
  call void @llvm.memcpy.p0.p0.i64(ptr align 4 %17, ptr align 4 %16, i64 12, i1 false)
  %23 = getelementptr inbounds nuw { i64, i32 }, ptr %17, i32 0, i32 0
  %24 = load i64, ptr %23, align 4
  %25 = getelementptr inbounds nuw { i64, i32 }, ptr %17, i32 0, i32 1
  %26 = load i32, ptr %25, align 4
  %27 = call noundef i64 @_ZN11duckdb_zstdL38ZSTD_compressBegin_usingCDict_internalEPNS_11ZSTD_CCtx_sEPKNS_12ZSTD_CDict_sENS_20ZSTD_frameParametersEy(ptr noundef %20, ptr noundef %21, i64 %24, i32 %26, i64 noundef %22)
  store i64 %27, ptr %15, align 8, !tbaa !3
  %28 = load i64, ptr %15, align 8, !tbaa !3
  %29 = call noundef i32 @_ZN11duckdb_zstdL11ERR_isErrorEm(i64 noundef %28)
  %30 = icmp ne i32 %29, 0
  br i1 %30, label %31, label %45

31:                                               ; preds = %19
  br label %32

32:                                               ; preds = %31
  br label %33

33:                                               ; preds = %32
  br label %34

34:                                               ; preds = %33
  br label %35

35:                                               ; preds = %34
  br label %36

36:                                               ; preds = %35
  br label %37

37:                                               ; preds = %36
  br label %38

38:                                               ; preds = %37
  br label %39

39:                                               ; preds = %38
  br label %40

40:                                               ; preds = %39
  br label %41

41:                                               ; preds = %40
  br label %42

42:                                               ; preds = %41
  br label %43

43:                                               ; preds = %42
  %44 = load i64, ptr %15, align 8, !tbaa !3
  store i64 %44, ptr %8, align 8
  store i32 1, ptr %18, align 4
  br label %46

45:                                               ; preds = %19
  store i32 0, ptr %18, align 4
  br label %46

46:                                               ; preds = %45, %43
  call void @llvm.lifetime.end.p0(i64 8, ptr %15) #16
  %47 = load i32, ptr %18, align 4
  switch i32 %47, label %58 [
    i32 0, label %48
    i32 1, label %56
  ]

48:                                               ; preds = %46
  br label %49

49:                                               ; preds = %48
  %50 = load ptr, ptr %9, align 8, !tbaa !13
  %51 = load ptr, ptr %10, align 8, !tbaa !8
  %52 = load i64, ptr %11, align 8, !tbaa !3
  %53 = load ptr, ptr %12, align 8, !tbaa !8
  %54 = load i64, ptr %13, align 8, !tbaa !3
  %55 = call noundef i64 @_ZN11duckdb_zstd23ZSTD_compressEnd_publicEPNS_11ZSTD_CCtx_sEPvmPKvm(ptr noundef %50, ptr noundef %51, i64 noundef %52, ptr noundef %53, i64 noundef %54)
  store i64 %55, ptr %8, align 8
  br label %56

56:                                               ; preds = %49, %46
  %57 = load i64, ptr %8, align 8
  ret i64 %57

58:                                               ; preds = %46
  unreachable
}

; Function Attrs: mustprogress uwtable
define noundef i64 @_ZN11duckdb_zstd24ZSTD_compress_usingCDictEPNS_11ZSTD_CCtx_sEPvmPKvmPKNS_12ZSTD_CDict_sE(ptr noundef %0, ptr noundef %1, i64 noundef %2, ptr noundef %3, i64 noundef %4, ptr noundef %5) #2 {
  %7 = alloca ptr, align 8
  %8 = alloca ptr, align 8
  %9 = alloca i64, align 8
  %10 = alloca ptr, align 8
  %11 = alloca i64, align 8
  %12 = alloca ptr, align 8
  %13 = alloca %"struct.duckdb_zstd::ZSTD_frameParameters", align 4
  %14 = alloca %"struct.duckdb_zstd::ZSTD_frameParameters", align 8
  store ptr %0, ptr %7, align 8, !tbaa !13
  store ptr %1, ptr %8, align 8, !tbaa !8
  store i64 %2, ptr %9, align 8, !tbaa !3
  store ptr %3, ptr %10, align 8, !tbaa !8
  store i64 %4, ptr %11, align 8, !tbaa !3
  store ptr %5, ptr %12, align 8, !tbaa !92
  call void @llvm.lifetime.start.p0(i64 12, ptr %13) #16
  call void @llvm.memcpy.p0.p0.i64(ptr align 4 %13, ptr align 4 @__const._ZN11duckdb_zstd24ZSTD_compress_usingCDictEPNS_11ZSTD_CCtx_sEPvmPKvmPKNS_12ZSTD_CDict_sE.fParams, i64 12, i1 false)
  %15 = load ptr, ptr %7, align 8, !tbaa !13
  %16 = load ptr, ptr %8, align 8, !tbaa !8
  %17 = load i64, ptr %9, align 8, !tbaa !3
  %18 = load ptr, ptr %10, align 8, !tbaa !8
  %19 = load i64, ptr %11, align 8, !tbaa !3
  %20 = load ptr, ptr %12, align 8, !tbaa !92
  call void @llvm.memcpy.p0.p0.i64(ptr align 4 %14, ptr align 4 %13, i64 12, i1 false), !tbaa.struct !109
  %21 = call noundef i64 @_ZN11duckdb_zstdL33ZSTD_compress_usingCDict_internalEPNS_11ZSTD_CCtx_sEPvmPKvmPKNS_12ZSTD_CDict_sENS_20ZSTD_frameParametersE(ptr noundef %15, ptr noundef %16, i64 noundef %17, ptr noundef %18, i64 noundef %19, ptr noundef %20, ptr noundef byval(%"struct.duckdb_zstd::ZSTD_frameParameters") align 8 %14)
  call void @llvm.lifetime.end.p0(i64 12, ptr %13) #16
  ret i64 %21
}