; Function Attrs: mustprogress uwtable
define noundef i64 @_ZN11duckdb_zstd24ZSTD_compress_usingCDictEPNS_11ZSTD_CCtx_sEPvmPKvmPKNS_12ZSTD_CDict_sE(ptr noundef %0, ptr noundef %1, i64 noundef %2, ptr noundef %3, i64 noundef %4, ptr noundef %5) local_unnamed_addr #2 {
  %7 = tail call fastcc noundef i64 @_ZN11duckdb_zstdL38ZSTD_compressBegin_usingCDict_internalEPNS_11ZSTD_CCtx_sEPKNS_12ZSTD_CDict_sENS_20ZSTD_frameParametersEy(ptr noundef %0, ptr noundef %5, i64 1, i32 0, i64 noundef %4)
  %8 = icmp ult i64 %7, -119
  br i1 %8, label %9, label %_ZN11duckdb_zstdL33ZSTD_compress_usingCDict_internalEPNS_11ZSTD_CCtx_sEPvmPKvmPKNS_12ZSTD_CDict_sENS_20ZSTD_frameParametersE.exit

9:                                                ; preds = %6
  %10 = tail call noundef i64 @_ZN11duckdb_zstd23ZSTD_compressEnd_publicEPNS_11ZSTD_CCtx_sEPvmPKvm(ptr noundef %0, ptr noundef %1, i64 noundef %2, ptr noundef %3, i64 noundef %4)
  br label %_ZN11duckdb_zstdL33ZSTD_compress_usingCDict_internalEPNS_11ZSTD_CCtx_sEPvmPKvmPKNS_12ZSTD_CDict_sENS_20ZSTD_frameParametersE.exit

_ZN11duckdb_zstdL33ZSTD_compress_usingCDict_internalEPNS_11ZSTD_CCtx_sEPvmPKvmPKNS_12ZSTD_CDict_sENS_20ZSTD_frameParametersE.exit: ; preds = %6, %9
  %.1.i = phi i64 [ %7, %6 ], [ %10, %9 ]
  ret i64 %.1.i
}